; Function Attrs: null_pointer_is_valid sspstrong uwtable
define internal fastcc ptr @find_or_create_ftp_conversation(ptr noundef %0) unnamed_addr #0 {
  %2 = tail call ptr @find_or_create_conversation(ptr noundef %0)
  %3 = load i32, ptr @proto_ftp, align 4
  %4 = tail call ptr @conversation_get_proto_data(ptr noundef %2, i32 noundef %3)
  %.not = icmp eq ptr %4, null
  br i1 %.not, label %5, label %12

5:                                                ; preds = %1
  %6 = tail call ptr @wmem_file_scope()
  %7 = tail call noalias dereferenceable_or_null(56) ptr @wmem_alloc0(ptr noundef %6, i64 noundef 56) #13
  %8 = tail call ptr @wmem_file_scope()
  %9 = tail call noalias ptr @wmem_strbuf_new(ptr noundef %8, ptr noundef nonnull @.str.187)
  %10 = getelementptr inbounds nuw i8, ptr %7, i64 16
  store ptr %9, ptr %10, align 8
  %11 = load i32, ptr @proto_ftp, align 4
  tail call void @conversation_add_proto_data(ptr noundef %2, i32 noundef %11, ptr noundef %7)
  br label %12

12:                                               ; preds = %5, %1
  %.0 = phi ptr [ %4, %1 ], [ %7, %5 ]
  ret ptr %.0
}